target datalayout = "e-m:e-p270:32:32-p271:32:32-p272:64:64-i64:64-i128:128-f80:128-n8:16:32:64-S128"
target triple = "x86_64-pc-linux-gnu"

@.str.3340 = private unnamed_addr constant [16 x i8] c"Mobile Identity\00", align 1

; Function Attrs: null_pointer_is_valid sspstrong uwtable
define internal signext i16 @cb_parse_mi(ptr noundef %0, ptr noundef %1, ptr noundef %2, ptr noundef %3, i32 noundef %4, i32 noundef %5, ptr noundef %6) #0 {
  %8 = alloca ptr, align 8
  %9 = alloca ptr, align 8
  %10 = alloca ptr, align 8
  %11 = alloca ptr, align 8
  %12 = alloca i32, align 4
  %13 = alloca i32, align 4
  %14 = alloca ptr, align 8
  %15 = alloca i8, align 1
  %16 = alloca ptr, align 8
  store ptr %0, ptr %8, align 8
  store ptr %1, ptr %9, align 8
  store ptr %2, ptr %10, align 8
  store ptr %3, ptr %11, align 8
  store i32 %4, ptr %12, align 4
  store i32 %5, ptr %13, align 4
  store ptr %6, ptr %14, align 8
  call void @llvm.lifetime.start.p0(i64 1, ptr %15) #5
  %17 = load ptr, ptr %10, align 8
  %18 = load i8, ptr %17, align 1
  store i8 %18, ptr %15, align 1
  %19 = load i8, ptr %15, align 1
  %20 = zext i8 %19 to i32
  %21 = shl i32 %20, 3
  %22 = icmp ne i32 %21, 0
  br i1 %22, label %23, label %36

23:                                               ; preds = %7
  call void @llvm.lifetime.start.p0(i64 8, ptr %16) #5
  %24 = load ptr, ptr %9, align 8
  %25 = load i32, ptr %12, align 4
  %26 = load i8, ptr %15, align 1
  %27 = zext i8 %26 to i32
  %28 = shl i32 %27, 3
  %29 = call ptr @tvb_new_octet_aligned(ptr noundef %24, i32 noundef %25, i32 noundef %28)
  store ptr %29, ptr %16, align 8
  %30 = load ptr, ptr %14, align 8
  %31 = load ptr, ptr %16, align 8
  call void @add_new_data_source(ptr noundef %30, ptr noundef %31, ptr noundef @.str.3340)
  %32 = load ptr, ptr %16, align 8
  %33 = load ptr, ptr %8, align 8
  %34 = load ptr, ptr %14, align 8
  %35 = call zeroext i16 @de_mid(ptr noundef %32, ptr noundef %33, ptr noundef %34, i32 noundef 0, i32 noundef -1, ptr noundef null, i32 noundef 0)
  call void @llvm.lifetime.end.p0(i64 8, ptr %16) #5
  br label %36

36:                                               ; preds = %23, %7
  %37 = load i8, ptr %15, align 1
  %38 = zext i8 %37 to i32
  %39 = shl i32 %38, 3
  %40 = trunc i32 %39 to i16
  call void @llvm.lifetime.end.p0(i64 1, ptr %15) #5
  ret i16 %40
}