; Function Attrs: null_pointer_is_valid sspstrong uwtable
define internal signext range(i16 0, 2041) i16 @cb_parse_mi(ptr noundef %0, ptr noundef %1, ptr noundef readonly captures(none) %2, ptr readnone captures(none) %3, i32 noundef %4, i32 %5, ptr noundef %6) #0 {
  %8 = load i8, ptr %2, align 1
  %9 = zext i8 %8 to i32
  %10 = shl nuw nsw i32 %9, 3
  %.not = icmp eq i8 %8, 0
  br i1 %.not, label %14, label %11

11:                                               ; preds = %7
  %12 = tail call ptr @tvb_new_octet_aligned(ptr noundef %1, i32 noundef %4, i32 noundef %10)
  tail call void @add_new_data_source(ptr noundef %6, ptr noundef %12, ptr noundef nonnull @.str.3340)
  %13 = tail call zeroext i16 @de_mid(ptr noundef %12, ptr noundef %0, ptr noundef %6, i32 noundef 0, i32 noundef -1, ptr noundef null, i32 noundef 0)
  br label %14

14:                                               ; preds = %11, %7
  %15 = trunc nuw nsw i32 %10 to i16
  ret i16 %15
}